target datalayout = "e-m:e-p270:32:32-p271:32:32-p272:64:64-i64:64-i128:128-f80:128-n8:16:32:64-S128"
target triple = "x86_64-pc-linux-gnu"

%struct.pg_conn = type { ptr, ptr, ptr, ptr, ptr, ptr, ptr, ptr, ptr, ptr, ptr, ptr, ptr, ptr, ptr, ptr, ptr, ptr, ptr, ptr, ptr, ptr, ptr, ptr, ptr, ptr, ptr, ptr, ptr, ptr, ptr, ptr, ptr, ptr, ptr, ptr, ptr, ptr, ptr, ptr, ptr, ptr, ptr, i8, ptr, i32, %struct.PGNoticeHooks, ptr, i32, i32, i32, i32, i32, [6 x i8], i8, i8, i32, i8, i8, i32, i8, i32, ptr, ptr, i32, i32, ptr, ptr, ptr, ptr, ptr, i32, %struct.SockAddr, %struct.SockAddr, i32, i32, i8, i8, i8, i8, i8, i8, ptr, i8, i32, [1 x ptr], i8, i8, ptr, ptr, i32, i32, i32, i8, i8, i32, i32, ptr, i8, i64, ptr, i64, ptr, i32, i32, ptr, i32, i8, i32, i32, i32, i32, ptr, %struct.pg_prng_state, ptr, i32, i32, i32, i32, ptr, i32, i32, i32, i32, ptr, i32, ptr, i8, ptr, ptr, ptr, i32, i8, i8, i8, i8, i8, i8, i8, i8, %struct.PQExpBufferData, i32, %struct.PQExpBufferData }
%struct.PGNoticeHooks = type { ptr, ptr, ptr, ptr }
%struct.SockAddr = type { %struct.sockaddr_storage, i32 }
%struct.sockaddr_storage = type { i16, [118 x i8], i64 }
%struct.pg_prng_state = type { i64, i64 }
%struct.PQExpBufferData = type { ptr, i64, i64 }

@.str.3 = private unnamed_addr constant [41 x i8] c"cannot allocate memory for input buffer\0A\00", align 1

; Function Attrs: nounwind uwtable
define i32 @pqCheckInBufferSpace(i64 noundef %0, ptr noundef %1) #0 {
  %3 = alloca i32, align 4
  %4 = alloca i64, align 8
  %5 = alloca ptr, align 8
  %6 = alloca i32, align 4
  %7 = alloca ptr, align 8
  %8 = alloca i32, align 4
  store i64 %0, ptr %4, align 8
  store ptr %1, ptr %5, align 8
  call void @llvm.lifetime.start.p0(i64 4, ptr %6) #10
  %9 = load ptr, ptr %5, align 8
  %10 = getelementptr inbounds nuw %struct.pg_conn, ptr %9, i32 0, i32 115
  %11 = load i32, ptr %10, align 8
  store i32 %11, ptr %6, align 4
  call void @llvm.lifetime.start.p0(i64 8, ptr %7) #10
  %12 = load i64, ptr %4, align 8
  %13 = load i32, ptr %6, align 4
  %14 = sext i32 %13 to i64
  %15 = icmp ule i64 %12, %14
  br i1 %15, label %16, label %17

16:                                               ; preds = %2
  store i32 0, ptr %3, align 4
  store i32 1, ptr %8, align 4
  br label %170

17:                                               ; preds = %2
  %18 = load ptr, ptr %5, align 8
  %19 = getelementptr inbounds nuw %struct.pg_conn, ptr %18, i32 0, i32 116
  %20 = load i32, ptr %19, align 4
  %21 = sext i32 %20 to i64
  %22 = load i64, ptr %4, align 8
  %23 = sub i64 %22, %21
  store i64 %23, ptr %4, align 8
  %24 = load ptr, ptr %5, align 8
  %25 = getelementptr inbounds nuw %struct.pg_conn, ptr %24, i32 0, i32 116
  %26 = load i32, ptr %25, align 4
  %27 = load ptr, ptr %5, align 8
  %28 = getelementptr inbounds nuw %struct.pg_conn, ptr %27, i32 0, i32 118
  %29 = load i32, ptr %28, align 4
  %30 = icmp slt i32 %26, %29
  br i1 %30, label %31, label %73

31:                                               ; preds = %17
  %32 = load ptr, ptr %5, align 8
  %33 = getelementptr inbounds nuw %struct.pg_conn, ptr %32, i32 0, i32 116
  %34 = load i32, ptr %33, align 4
  %35 = icmp sgt i32 %34, 0
  br i1 %35, label %36, label %72

36:                                               ; preds = %31
  %37 = load ptr, ptr %5, align 8
  %38 = getelementptr inbounds nuw %struct.pg_conn, ptr %37, i32 0, i32 114
  %39 = load ptr, ptr %38, align 8
  %40 = load ptr, ptr %5, align 8
  %41 = getelementptr inbounds nuw %struct.pg_conn, ptr %40, i32 0, i32 114
  %42 = load ptr, ptr %41, align 8
  %43 = load ptr, ptr %5, align 8
  %44 = getelementptr inbounds nuw %struct.pg_conn, ptr %43, i32 0, i32 116
  %45 = load i32, ptr %44, align 4
  %46 = sext i32 %45 to i64
  %47 = getelementptr inbounds i8, ptr %42, i64 %46
  %48 = load ptr, ptr %5, align 8
  %49 = getelementptr inbounds nuw %struct.pg_conn, ptr %48, i32 0, i32 118
  %50 = load i32, ptr %49, align 4
  %51 = load ptr, ptr %5, align 8
  %52 = getelementptr inbounds nuw %struct.pg_conn, ptr %51, i32 0, i32 116
  %53 = load i32, ptr %52, align 4
  %54 = sub i32 %50, %53
  %55 = sext i32 %54 to i64
  call void @llvm.memmove.p0.p0.i64(ptr align 1 %39, ptr align 1 %47, i64 %55, i1 false)
  %56 = load ptr, ptr %5, align 8
  %57 = getelementptr inbounds nuw %struct.pg_conn, ptr %56, i32 0, i32 116
  %58 = load i32, ptr %57, align 4
  %59 = load ptr, ptr %5, align 8
  %60 = getelementptr inbounds nuw %struct.pg_conn, ptr %59, i32 0, i32 118
  %61 = load i32, ptr %60, align 4
  %62 = sub i32 %61, %58
  store i32 %62, ptr %60, align 4
  %63 = load ptr, ptr %5, align 8
  %64 = getelementptr inbounds nuw %struct.pg_conn, ptr %63, i32 0, i32 116
  %65 = load i32, ptr %64, align 4
  %66 = load ptr, ptr %5, align 8
  %67 = getelementptr inbounds nuw %struct.pg_conn, ptr %66, i32 0, i32 117
  %68 = load i32, ptr %67, align 8
  %69 = sub i32 %68, %65
  store i32 %69, ptr %67, align 8
  %70 = load ptr, ptr %5, align 8
  %71 = getelementptr inbounds nuw %struct.pg_conn, ptr %70, i32 0, i32 116
  store i32 0, ptr %71, align 4
  br label %72

72:                                               ; preds = %36, %31
  br label %80

73:                                               ; preds = %17
  %74 = load ptr, ptr %5, align 8
  %75 = getelementptr inbounds nuw %struct.pg_conn, ptr %74, i32 0, i32 118
  store i32 0, ptr %75, align 4
  %76 = load ptr, ptr %5, align 8
  %77 = getelementptr inbounds nuw %struct.pg_conn, ptr %76, i32 0, i32 117
  store i32 0, ptr %77, align 8
  %78 = load ptr, ptr %5, align 8
  %79 = getelementptr inbounds nuw %struct.pg_conn, ptr %78, i32 0, i32 116
  store i32 0, ptr %79, align 4
  br label %80

80:                                               ; preds = %73, %72
  %81 = load i64, ptr %4, align 8
  %82 = load i32, ptr %6, align 4
  %83 = sext i32 %82 to i64
  %84 = icmp ule i64 %81, %83
  br i1 %84, label %85, label %86

85:                                               ; preds = %80
  store i32 0, ptr %3, align 4
  store i32 1, ptr %8, align 4
  br label %170

86:                                               ; preds = %80
  br label %87

87:                                               ; preds = %98, %86
  %88 = load i32, ptr %6, align 4
  %89 = mul i32 %88, 2
  store i32 %89, ptr %6, align 4
  br label %90

90:                                               ; preds = %87
  %91 = load i32, ptr %6, align 4
  %92 = icmp sgt i32 %91, 0
  br i1 %92, label %93, label %98

93:                                               ; preds = %90
  %94 = load i64, ptr %4, align 8
  %95 = load i32, ptr %6, align 4
  %96 = sext i32 %95 to i64
  %97 = icmp ugt i64 %94, %96
  br label %98

98:                                               ; preds = %93, %90
  %99 = phi i1 [ false, %90 ], [ %97, %93 ]
  br i1 %99, label %87, label %100, !llvm.loop !9

100:                                              ; preds = %98
  %101 = load i32, ptr %6, align 4
  %102 = icmp sgt i32 %101, 0
  br i1 %102, label %103, label %125

103:                                              ; preds = %100
  %104 = load i64, ptr %4, align 8
  %105 = load i32, ptr %6, align 4
  %106 = sext i32 %105 to i64
  %107 = icmp ule i64 %104, %106
  br i1 %107, label %108, label %125

108:                                              ; preds = %103
  %109 = load ptr, ptr %5, align 8
  %110 = getelementptr inbounds nuw %struct.pg_conn, ptr %109, i32 0, i32 114
  %111 = load ptr, ptr %110, align 8
  %112 = load i32, ptr %6, align 4
  %113 = sext i32 %112 to i64
  %114 = call ptr @realloc(ptr noundef %111, i64 noundef %113) #12
  store ptr %114, ptr %7, align 8
  %115 = load ptr, ptr %7, align 8
  %116 = icmp ne ptr %115, null
  br i1 %116, label %117, label %124

117:                                              ; preds = %108
  %118 = load ptr, ptr %7, align 8
  %119 = load ptr, ptr %5, align 8
  %120 = getelementptr inbounds nuw %struct.pg_conn, ptr %119, i32 0, i32 114
  store ptr %118, ptr %120, align 8
  %121 = load i32, ptr %6, align 4
  %122 = load ptr, ptr %5, align 8
  %123 = getelementptr inbounds nuw %struct.pg_conn, ptr %122, i32 0, i32 115
  store i32 %121, ptr %123, align 8
  store i32 0, ptr %3, align 4
  store i32 1, ptr %8, align 4
  br label %170

124:                                              ; preds = %108
  br label %125

125:                                              ; preds = %124, %103, %100
  %126 = load ptr, ptr %5, align 8
  %127 = getelementptr inbounds nuw %struct.pg_conn, ptr %126, i32 0, i32 115
  %128 = load i32, ptr %127, align 8
  store i32 %128, ptr %6, align 4
  br label %129

129:                                              ; preds = %140, %125
  %130 = load i32, ptr %6, align 4
  %131 = add i32 %130, 8192
  store i32 %131, ptr %6, align 4
  br label %132

132:                                              ; preds = %129
  %133 = load i32, ptr %6, align 4
  %134 = icmp sgt i32 %133, 0
  br i1 %134, label %135, label %140

135:                                              ; preds = %132
  %136 = load i64, ptr %4, align 8
  %137 = load i32, ptr %6, align 4
  %138 = sext i32 %137 to i64
  %139 = icmp ugt i64 %136, %138
  br label %140

140:                                              ; preds = %135, %132
  %141 = phi i1 [ false, %132 ], [ %139, %135 ]
  br i1 %141, label %129, label %142, !llvm.loop !10

142:                                              ; preds = %140
  %143 = load i32, ptr %6, align 4
  %144 = icmp sgt i32 %143, 0
  br i1 %144, label %145, label %167

145:                                              ; preds = %142
  %146 = load i64, ptr %4, align 8
  %147 = load i32, ptr %6, align 4
  %148 = sext i32 %147 to i64
  %149 = icmp ule i64 %146, %148
  br i1 %149, label %150, label %167

150:                                              ; preds = %145
  %151 = load ptr, ptr %5, align 8
  %152 = getelementptr inbounds nuw %struct.pg_conn, ptr %151, i32 0, i32 114
  %153 = load ptr, ptr %152, align 8
  %154 = load i32, ptr %6, align 4
  %155 = sext i32 %154 to i64
  %156 = call ptr @realloc(ptr noundef %153, i64 noundef %155) #12
  store ptr %156, ptr %7, align 8
  %157 = load ptr, ptr %7, align 8
  %158 = icmp ne ptr %157, null
  br i1 %158, label %159, label %166

159:                                              ; preds = %150
  %160 = load ptr, ptr %7, align 8
  %161 = load ptr, ptr %5, align 8
  %162 = getelementptr inbounds nuw %struct.pg_conn, ptr %161, i32 0, i32 114
  store ptr %160, ptr %162, align 8
  %163 = load i32, ptr %6, align 4
  %164 = load ptr, ptr %5, align 8
  %165 = getelementptr inbounds nuw %struct.pg_conn, ptr %164, i32 0, i32 115
  store i32 %163, ptr %165, align 8
  store i32 0, ptr %3, align 4
  store i32 1, ptr %8, align 4
  br label %170

166:                                              ; preds = %150
  br label %167

167:                                              ; preds = %166, %145, %142
  %168 = load ptr, ptr %5, align 8
  %169 = getelementptr inbounds nuw %struct.pg_conn, ptr %168, i32 0, i32 140
  call void @appendPQExpBufferStr(ptr noundef %169, ptr noundef @.str.3)
  store i32 -1, ptr %3, align 4
  store i32 1, ptr %8, align 4
  br label %170

170:                                              ; preds = %167, %159, %117, %85, %16
  call void @llvm.lifetime.end.p0(i64 8, ptr %7) #10
  call void @llvm.lifetime.end.p0(i64 4, ptr %6) #10
  %171 = load i32, ptr %3, align 4
  ret i32 %171
}