; Function Attrs: nounwind uwtable
define range(i32 -1, 1) i32 @pqCheckInBufferSpace(i64 noundef %0, ptr noundef %1) local_unnamed_addr #2 {
  %3 = getelementptr inbounds nuw i8, ptr %1, i64 1008
  %4 = load i32, ptr %3, align 8
  %5 = sext i32 %4 to i64
  %.not = icmp ugt i64 %0, %5
  br i1 %.not, label %6, label %58

6:                                                ; preds = %2
  %7 = getelementptr inbounds nuw i8, ptr %1, i64 1012
  %8 = load i32, ptr %7, align 4
  %9 = sext i32 %8 to i64
  %10 = sub i64 %0, %9
  %11 = getelementptr inbounds nuw i8, ptr %1, i64 1020
  %12 = load i32, ptr %11, align 4
  %13 = icmp slt i32 %8, %12
  br i1 %13, label %14, label %28

14:                                               ; preds = %6
  %15 = icmp sgt i32 %8, 0
  br i1 %15, label %16, label %30

16:                                               ; preds = %14
  %17 = getelementptr inbounds nuw i8, ptr %1, i64 1000
  %18 = load ptr, ptr %17, align 8
  %19 = getelementptr inbounds nuw i8, ptr %18, i64 %9
  %20 = sub i32 %12, %8
  %21 = sext i32 %20 to i64
  tail call void @llvm.memmove.p0.p0.i64(ptr align 1 %18, ptr nonnull align 1 %19, i64 %21, i1 false)
  %22 = load i32, ptr %7, align 4
  %23 = load i32, ptr %11, align 4
  %24 = sub i32 %23, %22
  store i32 %24, ptr %11, align 4
  %25 = getelementptr inbounds nuw i8, ptr %1, i64 1016
  %26 = load i32, ptr %25, align 8
  %27 = sub i32 %26, %22
  store i32 %27, ptr %25, align 8
  br label %.sink.split

28:                                               ; preds = %6
  store i32 0, ptr %11, align 4
  %29 = getelementptr inbounds nuw i8, ptr %1, i64 1016
  store i32 0, ptr %29, align 8
  br label %.sink.split

.sink.split:                                      ; preds = %28, %16
  store i32 0, ptr %7, align 4
  br label %30

30:                                               ; preds = %.sink.split, %14
  %.not64 = icmp ugt i64 %10, %5
  br i1 %.not64, label %.preheader, label %58

.preheader:                                       ; preds = %30, %.preheader
  %.0 = phi i32 [ %31, %.preheader ], [ %4, %30 ]
  %31 = shl i32 %.0, 1
  %32 = icmp sgt i32 %31, 0
  %33 = sext i32 %31 to i64
  %34 = icmp ugt i64 %10, %33
  %35 = and i1 %32, %34
  br i1 %35, label %.preheader, label %36, !llvm.loop !7

36:                                               ; preds = %.preheader
  %.not69 = xor i1 %32, true
  %or.cond = or i1 %34, %.not69
  br i1 %or.cond, label %42, label %37

37:                                               ; preds = %36
  %38 = getelementptr inbounds nuw i8, ptr %1, i64 1000
  %39 = load ptr, ptr %38, align 8
  %40 = tail call ptr @realloc(ptr noundef %39, i64 noundef %33) #18
  %.not66 = icmp eq ptr %40, null
  br i1 %.not66, label %42, label %41

41:                                               ; preds = %37
  store ptr %40, ptr %38, align 8
  store i32 %31, ptr %3, align 8
  br label %58

42:                                               ; preds = %37, %36
  %43 = load i32, ptr %3, align 8
  br label %44

44:                                               ; preds = %44, %42
  %.1 = phi i32 [ %43, %42 ], [ %45, %44 ]
  %45 = add i32 %.1, 8192
  %46 = icmp sgt i32 %45, 0
  %47 = sext i32 %45 to i64
  %48 = icmp ugt i64 %10, %47
  %49 = and i1 %46, %48
  br i1 %49, label %44, label %50, !llvm.loop !8

50:                                               ; preds = %44
  %.not70 = xor i1 %46, true
  %or.cond71 = or i1 %48, %.not70
  br i1 %or.cond71, label %56, label %51

51:                                               ; preds = %50
  %52 = getelementptr inbounds nuw i8, ptr %1, i64 1000
  %53 = load ptr, ptr %52, align 8
  %54 = tail call ptr @realloc(ptr noundef %53, i64 noundef %47) #18
  %.not68 = icmp eq ptr %54, null
  br i1 %.not68, label %56, label %55

55:                                               ; preds = %51
  store ptr %54, ptr %52, align 8
  store i32 %45, ptr %3, align 8
  br label %58

56:                                               ; preds = %51, %50
  %57 = getelementptr inbounds nuw i8, ptr %1, i64 1120
  tail call void @appendPQExpBufferStr(ptr noundef nonnull %57, ptr noundef nonnull @.str.3) #19
  br label %58

58:                                               ; preds = %30, %2, %56, %55, %41
  %.053 = phi i32 [ 0, %41 ], [ 0, %55 ], [ -1, %56 ], [ 0, %2 ], [ 0, %30 ]
  ret i32 %.053
}